target datalayout = "e-m:e-p270:32:32-p271:32:32-p272:64:64-i64:64-i128:128-f80:128-n8:16:32:64-S128"
target triple = "x86_64-pc-linux-gnu"

%struct.DICTIONARY_ID = type { i64 }
%"class.std::__shared_count" = type { ptr }
%"class.toku::locktree" = type { ptr, %struct.DICTIONARY_ID, i32, [4 x i8], %"class.toku::comparator", ptr, ptr, ptr, ptr, %"struct.toku::lt_lock_request_info", i64, %"class.toku::range_buffer", i32, i64, i64 }
%"class.toku::comparator" = type <{ ptr, ptr, i8, [7 x i8] }>
%"struct.toku::lt_lock_request_info" = type <{ %"class.toku::omt", %"struct.std::atomic", [7 x i8], %"class.std::shared_ptr.0", i8, [7 x i8], %"struct.toku::lt_counters", %"struct.std::atomic.3", i64, %struct.toku_mutex_t, %struct.toku_cond_t, i8, [7 x i8] }>
%"class.toku::omt" = type { i8, i32, %union.anon }
%union.anon = type { %"struct.toku::omt<toku::lock_request *>::omt_array" }
%"struct.toku::omt<toku::lock_request *>::omt_array" = type { i32, i32, ptr }
%"struct.std::atomic" = type { %"struct.std::__atomic_base" }
%"struct.std::__atomic_base" = type { i8 }
%"class.std::shared_ptr.0" = type { %"class.std::__shared_ptr.1" }
%"class.std::__shared_ptr.1" = type { ptr, %"class.std::__shared_count" }
%"struct.toku::lt_counters" = type { i64, i64, i64, i64, i64 }
%"struct.std::atomic.3" = type { %"struct.std::__atomic_base.4" }
%"struct.std::__atomic_base.4" = type { i64 }
%struct.toku_mutex_t = type { %union.pthread_mutex_t, ptr }
%union.pthread_mutex_t = type { %struct.__pthread_mutex_s }
%struct.__pthread_mutex_s = type { i32, i32, i32, i32, i32, i16, i16, %struct.__pthread_internal_list }
%struct.__pthread_internal_list = type { ptr, ptr }
%struct.toku_cond_t = type { %union.pthread_cond_t, ptr }
%union.pthread_cond_t = type { %struct.__pthread_cond_s }
%struct.__pthread_cond_s = type { %union.__atomic_wide_counter, %union.__atomic_wide_counter, [2 x i32], [2 x i32], i32, i32, [2 x i32] }
%union.__atomic_wide_counter = type { i64 }
%"class.toku::range_buffer" = type <{ %class.memarena, i32, [4 x i8] }>
%class.memarena = type { %"struct.memarena::arena_chunk", ptr, i32, i64, i64 }
%"struct.memarena::arena_chunk" = type { ptr, i64, i64 }
%"class.toku::keyrange" = type <{ %struct.__toku_dbt, %struct.__toku_dbt, ptr, ptr, i8, [7 x i8] }>
%struct.__toku_dbt = type { ptr, i64, i64, i32 }
%"class.toku::concurrent_tree" = type { %"class.toku::treenode" }
%"class.toku::treenode" = type <{ %struct.toku_mutex_t, %"class.toku::keyrange", i64, i8, [7 x i8], ptr, %"struct.toku::treenode::child_ptr", %"struct.toku::treenode::child_ptr", ptr, i8, i8, [6 x i8] }>
%"struct.toku::treenode::child_ptr" = type { ptr, i32 }
%"class.toku::concurrent_tree::locked_keyrange" = type { ptr, %"class.toku::keyrange", ptr }
%"class.toku::range_buffer::iterator" = type { %"class.memarena::chunk_iterator", ptr, i64, i64, i64 }
%"class.memarena::chunk_iterator" = type <{ ptr, i32, [4 x i8] }>
%"class.toku::range_buffer::iterator::record" = type { %"struct.toku::range_buffer::record_header", %struct.__toku_dbt, %struct.__toku_dbt }
%"struct.toku::range_buffer::record_header" = type { i8, i8, i8, i8, i16, i16, i8 }
%struct.migrate_fn_obj = type { ptr }

; Function Attrs: mustprogress uwtable
define internal void @_ZNK4toku15concurrent_tree15locked_keyrange7iterateIZNS_8locktree33sto_migrate_buffer_ranges_to_treeEPvE14migrate_fn_objEEvPT_(ptr noundef nonnull align 8 dereferenceable(104) %0, ptr noundef %1) #0 align 2 {
  %3 = alloca ptr, align 8
  %4 = alloca ptr, align 8
  store ptr %0, ptr %3, align 8, !tbaa !99
  store ptr %1, ptr %4, align 8, !tbaa !115
  %5 = load ptr, ptr %3, align 8
  %6 = getelementptr inbounds nuw %"class.toku::concurrent_tree::locked_keyrange", ptr %5, i32 0, i32 2
  %7 = load ptr, ptr %6, align 8, !tbaa !117
  %8 = call noundef zeroext i1 @_ZN4toku8treenode8is_emptyEv(ptr noundef nonnull align 8 dereferenceable(202) %7)
  br i1 %8, label %14, label %9

9:                                                ; preds = %2
  %10 = getelementptr inbounds nuw %"class.toku::concurrent_tree::locked_keyrange", ptr %5, i32 0, i32 2
  %11 = load ptr, ptr %10, align 8, !tbaa !117
  %12 = getelementptr inbounds nuw %"class.toku::concurrent_tree::locked_keyrange", ptr %5, i32 0, i32 1
  %13 = load ptr, ptr %4, align 8, !tbaa !115
  call void @_ZN4toku8treenode17traverse_overlapsIZNS_8locktree33sto_migrate_buffer_ranges_to_treeEPvE14migrate_fn_objEEvRKNS_8keyrangeEPT_(ptr noundef nonnull align 8 dereferenceable(202) %11, ptr noundef nonnull align 8 dereferenceable(81) %12, ptr noundef %13)
  br label %14

14:                                               ; preds = %9, %2
  ret void
}

; Function Attrs: mustprogress nounwind uwtable
define linkonce_odr noundef zeroext i1 @_ZNK4toku12range_buffer8iterator6record18get_exclusive_flagEv(ptr noundef nonnull align 8 dereferenceable(80) %0) #5 comdat align 2 {
  %2 = alloca ptr, align 8
  store ptr %0, ptr %2, align 8, !tbaa !109
  %3 = load ptr, ptr %2, align 8
  %4 = getelementptr inbounds nuw %"class.toku::range_buffer::iterator::record", ptr %3, i32 0, i32 0
  %5 = getelementptr inbounds nuw %"struct.toku::range_buffer::record_header", ptr %4, i32 0, i32 6
  %6 = load i8, ptr %5, align 8, !tbaa !111, !range !68, !noundef !69
  %7 = trunc i8 %6 to i1
  ret i1 %7
}

; Function Attrs: mustprogress uwtable
define void @_ZN4toku8locktree33sto_migrate_buffer_ranges_to_treeEPv(ptr noundef nonnull align 8 dereferenceable(400) %0, ptr noundef %1) #0 align 2 {
  %3 = alloca ptr, align 8
  %4 = alloca ptr, align 8
  %5 = alloca %"class.toku::concurrent_tree", align 8
  %6 = alloca %"class.toku::concurrent_tree::locked_keyrange", align 8
  %7 = alloca %"class.toku::range_buffer::iterator", align 8
  %8 = alloca %"class.toku::range_buffer::iterator::record", align 8
  %9 = alloca i32, align 4
  %10 = alloca %struct.migrate_fn_obj, align 8
  store ptr %0, ptr %3, align 8, !tbaa !4
  store ptr %1, ptr %4, align 8, !tbaa !55
  %11 = load ptr, ptr %3, align 8
  %12 = getelementptr inbounds nuw %"class.toku::locktree", ptr %11, i32 0, i32 11
  %13 = call noundef zeroext i1 @_ZNK4toku12range_buffer8is_emptyEv(ptr noundef nonnull align 8 dereferenceable(60) %12)
  %14 = getelementptr inbounds nuw %"class.toku::locktree", ptr %11, i32 0, i32 7
  %15 = load ptr, ptr %14, align 8, !tbaa !49
  %16 = call noundef zeroext i1 @_ZN4toku15concurrent_tree8is_emptyEv(ptr noundef nonnull align 8 dereferenceable(208) %15)
  call void @llvm.lifetime.start.p0(i64 208, ptr %5) #18
  call void @llvm.lifetime.start.p0(i64 104, ptr %6) #18
  %17 = getelementptr inbounds nuw %"class.toku::locktree", ptr %11, i32 0, i32 4
  call void @_ZN4toku15concurrent_tree6createEPKNS_10comparatorE(ptr noundef nonnull align 8 dereferenceable(208) %5, ptr noundef %17)
  call void @llvm.lifetime.start.p0(i64 48, ptr %7) #18
  %18 = getelementptr inbounds nuw %"class.toku::locktree", ptr %11, i32 0, i32 11
  call void @_ZN4toku12range_buffer8iteratorC1EPKS0_(ptr noundef nonnull align 8 dereferenceable(48) %7, ptr noundef %18)
  call void @llvm.lifetime.start.p0(i64 80, ptr %8) #18
  br label %19

19:                                               ; preds = %21, %2
  %20 = call noundef zeroext i1 @_ZN4toku12range_buffer8iterator7currentEPNS1_6recordE(ptr noundef nonnull align 8 dereferenceable(48) %7, ptr noundef %8)
  br i1 %20, label %21, label %28

21:                                               ; preds = %19
  call void @_ZN4toku15concurrent_tree15locked_keyrange7prepareEPS0_(ptr noundef nonnull align 8 dereferenceable(104) %6, ptr noundef %5)
  call void @llvm.lifetime.start.p0(i64 4, ptr %9) #18
  %22 = getelementptr inbounds nuw %"class.toku::locktree", ptr %11, i32 0, i32 10
  %23 = load i64, ptr %22, align 8, !tbaa !50
  %24 = call noundef ptr @_ZNK4toku12range_buffer8iterator6record12get_left_keyEv(ptr noundef nonnull align 8 dereferenceable(80) %8)
  %25 = call noundef ptr @_ZNK4toku12range_buffer8iterator6record13get_right_keyEv(ptr noundef nonnull align 8 dereferenceable(80) %8)
  %26 = call noundef zeroext i1 @_ZNK4toku12range_buffer8iterator6record18get_exclusive_flagEv(ptr noundef nonnull align 8 dereferenceable(80) %8)
  %27 = call noundef i32 @_ZN4toku8locktree25acquire_lock_consolidatedEPvmPK10__toku_dbtS4_bPNS_9txnid_setE(ptr noundef nonnull align 8 dereferenceable(400) %11, ptr noundef %6, i64 noundef %23, ptr noundef %24, ptr noundef %25, i1 noundef zeroext %26, ptr noundef null)
  store i32 %27, ptr %9, align 4, !tbaa !81
  call void @_ZN4toku15concurrent_tree15locked_keyrange7releaseEv(ptr noundef nonnull align 8 dereferenceable(104) %6)
  call void @_ZN4toku12range_buffer8iterator4nextEv(ptr noundef nonnull align 8 dereferenceable(48) %7)
  call void @llvm.lifetime.end.p0(i64 4, ptr %9) #18
  br label %19, !llvm.loop !91

28:                                               ; preds = %19
  call void @llvm.lifetime.start.p0(i64 8, ptr %10) #18
  %29 = load ptr, ptr %4, align 8, !tbaa !55
  %30 = getelementptr inbounds nuw %struct.migrate_fn_obj, ptr %10, i32 0, i32 0
  store ptr %29, ptr %30, align 8, !tbaa !93
  call void @_ZN4toku15concurrent_tree15locked_keyrange7prepareEPS0_(ptr noundef nonnull align 8 dereferenceable(104) %6, ptr noundef %5)
  call void @_ZNK4toku15concurrent_tree15locked_keyrange7iterateIZNS_8locktree33sto_migrate_buffer_ranges_to_treeEPvE14migrate_fn_objEEvPT_(ptr noundef nonnull align 8 dereferenceable(104) %6, ptr noundef %10)
  call void @_ZN4toku15concurrent_tree15locked_keyrange10remove_allEv(ptr noundef nonnull align 8 dereferenceable(104) %6)
  call void @_ZN4toku15concurrent_tree15locked_keyrange7releaseEv(ptr noundef nonnull align 8 dereferenceable(104) %6)
  call void @_ZN4toku15concurrent_tree7destroyEv(ptr noundef nonnull align 8 dereferenceable(208) %5)
  %31 = getelementptr inbounds nuw %"class.toku::locktree", ptr %11, i32 0, i32 7
  %32 = load ptr, ptr %31, align 8, !tbaa !49
  %33 = call noundef zeroext i1 @_ZN4toku15concurrent_tree8is_emptyEv(ptr noundef nonnull align 8 dereferenceable(208) %32)
  call void @llvm.lifetime.end.p0(i64 8, ptr %10) #18
  call void @llvm.lifetime.end.p0(i64 80, ptr %8) #18
  call void @llvm.lifetime.end.p0(i64 48, ptr %7) #18
  call void @llvm.lifetime.end.p0(i64 104, ptr %6) #18
  call void @llvm.lifetime.end.p0(i64 208, ptr %5) #18
  ret void
}