; Function Attrs: mustprogress uwtable
define void @_ZN4toku8locktree33sto_migrate_buffer_ranges_to_treeEPv(ptr noundef nonnull align 8 dereferenceable(400) %0, ptr noundef %1) local_unnamed_addr #0 align 2 {
  %3 = alloca %"class.toku::concurrent_tree", align 8
  %4 = alloca %"class.toku::concurrent_tree::locked_keyrange", align 8
  %5 = alloca %"class.toku::range_buffer::iterator", align 8
  %6 = alloca %"class.toku::range_buffer::iterator::record", align 8
  %7 = alloca %struct.migrate_fn_obj, align 8
  %8 = getelementptr inbounds nuw i8, ptr %0, i64 312
  %9 = tail call noundef zeroext i1 @_ZNK4toku12range_buffer8is_emptyEv(ptr noundef nonnull align 8 dereferenceable(60) %8)
  %10 = getelementptr inbounds nuw i8, ptr %0, i64 64
  %11 = load ptr, ptr %10, align 8, !tbaa !44
  %12 = tail call noundef zeroext i1 @_ZN4toku15concurrent_tree8is_emptyEv(ptr noundef nonnull align 8 dereferenceable(208) %11)
  call void @llvm.lifetime.start.p0(i64 208, ptr nonnull %3) #21
  call void @llvm.lifetime.start.p0(i64 104, ptr nonnull %4) #21
  %13 = getelementptr inbounds nuw i8, ptr %0, i64 24
  call void @_ZN4toku15concurrent_tree6createEPKNS_10comparatorE(ptr noundef nonnull align 8 dereferenceable(208) %3, ptr noundef nonnull %13)
  call void @llvm.lifetime.start.p0(i64 48, ptr nonnull %5) #21
  call void @_ZN4toku12range_buffer8iteratorC1EPKS0_(ptr noundef nonnull align 8 dereferenceable(48) %5, ptr noundef nonnull %8)
  call void @llvm.lifetime.start.p0(i64 80, ptr nonnull %6) #21
  %14 = call noundef zeroext i1 @_ZN4toku12range_buffer8iterator7currentEPNS1_6recordE(ptr noundef nonnull align 8 dereferenceable(48) %5, ptr noundef nonnull %6)
  br i1 %14, label %.lr.ph, label %._crit_edge

.lr.ph:                                           ; preds = %2
  %15 = getelementptr inbounds nuw i8, ptr %0, i64 304
  %16 = getelementptr inbounds nuw i8, ptr %6, i64 8
  br label %17

17:                                               ; preds = %.lr.ph, %17
  call void @_ZN4toku15concurrent_tree15locked_keyrange7prepareEPS0_(ptr noundef nonnull align 8 dereferenceable(104) %4, ptr noundef nonnull %3)
  %18 = load i64, ptr %15, align 8, !tbaa !45
  %19 = call noundef ptr @_ZNK4toku12range_buffer8iterator6record12get_left_keyEv(ptr noundef nonnull align 8 dereferenceable(80) %6)
  %20 = call noundef ptr @_ZNK4toku12range_buffer8iterator6record13get_right_keyEv(ptr noundef nonnull align 8 dereferenceable(80) %6)
  %21 = load i8, ptr %16, align 8, !tbaa !71, !range !67, !noundef !68
  %22 = trunc nuw i8 %21 to i1
  %23 = call noundef i32 @_ZN4toku8locktree25acquire_lock_consolidatedEPvmPK10__toku_dbtS4_bPNS_9txnid_setE(ptr noundef nonnull align 8 dereferenceable(400) %0, ptr noundef nonnull %4, i64 noundef %18, ptr noundef %19, ptr noundef %20, i1 noundef zeroext %22, ptr noundef null)
  call void @_ZN4toku15concurrent_tree15locked_keyrange7releaseEv(ptr noundef nonnull align 8 dereferenceable(104) %4)
  call void @_ZN4toku12range_buffer8iterator4nextEv(ptr noundef nonnull align 8 dereferenceable(48) %5)
  %24 = call noundef zeroext i1 @_ZN4toku12range_buffer8iterator7currentEPNS1_6recordE(ptr noundef nonnull align 8 dereferenceable(48) %5, ptr noundef nonnull %6)
  br i1 %24, label %17, label %._crit_edge, !llvm.loop !76

._crit_edge:                                      ; preds = %17, %2
  call void @llvm.lifetime.start.p0(i64 8, ptr nonnull %7) #21
  store ptr %1, ptr %7, align 8, !tbaa !78
  call void @_ZN4toku15concurrent_tree15locked_keyrange7prepareEPS0_(ptr noundef nonnull align 8 dereferenceable(104) %4, ptr noundef nonnull %3)
  %25 = getelementptr inbounds nuw i8, ptr %4, i64 96
  %26 = load ptr, ptr %25, align 8, !tbaa !81
  %27 = call noundef zeroext i1 @_ZN4toku8treenode8is_emptyEv(ptr noundef nonnull align 8 dereferenceable(202) %26)
  br i1 %27, label %_ZNK4toku15concurrent_tree15locked_keyrange7iterateIZNS_8locktree33sto_migrate_buffer_ranges_to_treeEPvE14migrate_fn_objEEvPT_.exit, label %28

28:                                               ; preds = %._crit_edge
  %29 = load ptr, ptr %25, align 8, !tbaa !81
  %30 = getelementptr inbounds nuw i8, ptr %4, i64 8
  call fastcc void @_ZN4toku8treenode17traverse_overlapsIZNS_8locktree33sto_migrate_buffer_ranges_to_treeEPvE14migrate_fn_objEEvRKNS_8keyrangeEPT_(ptr noundef nonnull align 8 dereferenceable(202) %29, ptr noundef nonnull align 8 dereferenceable(81) %30, ptr noundef nonnull %7)
  br label %_ZNK4toku15concurrent_tree15locked_keyrange7iterateIZNS_8locktree33sto_migrate_buffer_ranges_to_treeEPvE14migrate_fn_objEEvPT_.exit

_ZNK4toku15concurrent_tree15locked_keyrange7iterateIZNS_8locktree33sto_migrate_buffer_ranges_to_treeEPvE14migrate_fn_objEEvPT_.exit: ; preds = %._crit_edge, %28
  call void @_ZN4toku15concurrent_tree15locked_keyrange10remove_allEv(ptr noundef nonnull align 8 dereferenceable(104) %4)
  call void @_ZN4toku15concurrent_tree15locked_keyrange7releaseEv(ptr noundef nonnull align 8 dereferenceable(104) %4)
  call void @_ZN4toku15concurrent_tree7destroyEv(ptr noundef nonnull align 8 dereferenceable(208) %3)
  %31 = load ptr, ptr %10, align 8, !tbaa !44
  %32 = call noundef zeroext i1 @_ZN4toku15concurrent_tree8is_emptyEv(ptr noundef nonnull align 8 dereferenceable(208) %31)
  call void @llvm.lifetime.end.p0(i64 8, ptr nonnull %7) #21
  call void @llvm.lifetime.end.p0(i64 80, ptr nonnull %6) #21
  call void @llvm.lifetime.end.p0(i64 48, ptr nonnull %5) #21
  call void @llvm.lifetime.end.p0(i64 104, ptr nonnull %4) #21
  call void @llvm.lifetime.end.p0(i64 208, ptr nonnull %3) #21
  ret void
}